; Function Attrs: mustprogress nofree norecurse nosync nounwind willreturn memory(argmem: readwrite) uwtable
define noundef signext i8 @_ZN6icu_7521UTF8CollationIterator18foundNULTerminatorEv(ptr nocapture noundef nonnull align 8 dereferenceable(408) %this) unnamed_addr #8 align 2 {
entry:
  %length = getelementptr inbounds i8, ptr %this, i64 404
  %0 = load i32, ptr %length, align 4
  %cmp = icmp slt i32 %0, 0
  br i1 %cmp, label %if.then, label %return

if.then:                                          ; preds = %entry
  %pos = getelementptr inbounds i8, ptr %this, i64 400
  %1 = load i32, ptr %pos, align 8
  %dec = add nsw i32 %1, -1
  store i32 %dec, ptr %pos, align 8
  store i32 %dec, ptr %length, align 4
  br label %return

return:                                           ; preds = %entry, %if.then
  %retval.0 = phi i8 [ 1, %if.then ], [ 0, %entry ]
  ret i8 %retval.0
}